; Function Attrs: mustprogress sspstrong uwtable
define noundef ptr @_ZN3tbb6detail2r115current_contextEv() local_unnamed_addr #3 {
  %1 = load i32, ptr @_ZN3tbb6detail2r18governor6theTLSE, align 4, !tbaa !139
  %2 = tail call noundef ptr @pthread_getspecific(i32 noundef %1) #11
  %.not.i = icmp eq ptr %2, null
  br i1 %.not.i, label %3, label %_ZN3tbb6detail2r18governor15get_thread_dataEv.exit

3:                                                ; preds = %0
  tail call void @_ZN3tbb6detail2r18governor20init_external_threadEv()
  %4 = load i32, ptr @_ZN3tbb6detail2r18governor6theTLSE, align 4, !tbaa !139
  %5 = tail call noundef ptr @pthread_getspecific(i32 noundef %4) #11
  br label %_ZN3tbb6detail2r18governor15get_thread_dataEv.exit

_ZN3tbb6detail2r18governor15get_thread_dataEv.exit: ; preds = %0, %3
  %.0.i = phi ptr [ %5, %3 ], [ %2, %0 ]
  %6 = getelementptr inbounds nuw i8, ptr %.0.i, i64 24
  %7 = load ptr, ptr %6, align 8, !tbaa !142
  %8 = getelementptr inbounds nuw i8, ptr %7, i64 48
  %9 = load i8, ptr %8, align 16, !tbaa !199, !range !85, !noundef !86
  %10 = trunc nuw i8 %9 to i1
  br i1 %10, label %14, label %11

11:                                               ; preds = %_ZN3tbb6detail2r18governor15get_thread_dataEv.exit
  %12 = getelementptr inbounds nuw i8, ptr %7, i64 8
  %13 = load ptr, ptr %12, align 8, !tbaa !200
  br label %14

14:                                               ; preds = %_ZN3tbb6detail2r18governor15get_thread_dataEv.exit, %11
  %.0 = phi ptr [ %13, %11 ], [ null, %_ZN3tbb6detail2r18governor15get_thread_dataEv.exit ]
  ret ptr %.0
}